; Function Attrs: mustprogress uwtable
define noundef i32 @_ZN5arrow8internal22FloatToStringFormatter11FormatFloatEfPci(ptr noundef nonnull readonly align 8 captures(none) dereferenceable(8) %0, float noundef %1, ptr noundef %2, i32 noundef %3) local_unnamed_addr #0 align 2 personality ptr @__gxx_personality_v0 {
  %5 = alloca %"class.arrow_vendored::double_conversion::StringBuilder", align 8
  call void @llvm.lifetime.start.p0(i64 24, ptr nonnull %5) #8
  store ptr %2, ptr %5, align 8, !tbaa !20
  %6 = getelementptr inbounds nuw i8, ptr %5, i64 8
  store i32 %3, ptr %6, align 8, !tbaa !22
  %7 = getelementptr inbounds nuw i8, ptr %5, i64 16
  store i32 0, ptr %7, align 8, !tbaa !23
  %8 = load ptr, ptr %0, align 8, !tbaa !18
  %9 = fpext float %1 to double
  %10 = invoke noundef zeroext i1 @_ZNK14arrow_vendored17double_conversion23DoubleToStringConverter20ToShortestIeeeNumberEdPNS0_13StringBuilderENS1_8DtoaModeE(ptr noundef nonnull align 8 dereferenceable(48) %8, double noundef %9, ptr noundef nonnull %5, i32 noundef 1)
          to label %_ZNK14arrow_vendored17double_conversion23DoubleToStringConverter16ToShortestSingleEfPNS0_13StringBuilderE.exit unwind label %17

_ZNK14arrow_vendored17double_conversion23DoubleToStringConverter16ToShortestSingleEfPNS0_13StringBuilderE.exit: ; preds = %4
  %11 = load i32, ptr %7, align 8, !tbaa !23
  %12 = icmp slt i32 %11, 0
  br i1 %12, label %_ZN14arrow_vendored17double_conversion13StringBuilderD2Ev.exit, label %13

13:                                               ; preds = %_ZNK14arrow_vendored17double_conversion23DoubleToStringConverter16ToShortestSingleEfPNS0_13StringBuilderE.exit
  %14 = load ptr, ptr %5, align 8, !tbaa !20
  %15 = zext nneg i32 %11 to i64
  %16 = getelementptr inbounds nuw i8, ptr %14, i64 %15
  store i8 0, ptr %16, align 1, !tbaa !25
  br label %_ZN14arrow_vendored17double_conversion13StringBuilderD2Ev.exit

_ZN14arrow_vendored17double_conversion13StringBuilderD2Ev.exit: ; preds = %_ZNK14arrow_vendored17double_conversion23DoubleToStringConverter16ToShortestSingleEfPNS0_13StringBuilderE.exit, %13
  call void @llvm.lifetime.end.p0(i64 24, ptr nonnull %5) #8
  ret i32 %11

17:                                               ; preds = %4
  %18 = landingpad { ptr, i32 }
          cleanup
  %19 = load i32, ptr %7, align 8, !tbaa !23
  %20 = icmp slt i32 %19, 0
  br i1 %20, label %_ZN14arrow_vendored17double_conversion13StringBuilderD2Ev.exit5, label %21

21:                                               ; preds = %17
  %22 = load ptr, ptr %5, align 8, !tbaa !20
  %23 = zext nneg i32 %19 to i64
  %24 = getelementptr inbounds nuw i8, ptr %22, i64 %23
  store i8 0, ptr %24, align 1, !tbaa !25
  br label %_ZN14arrow_vendored17double_conversion13StringBuilderD2Ev.exit5

_ZN14arrow_vendored17double_conversion13StringBuilderD2Ev.exit5: ; preds = %17, %21
  call void @llvm.lifetime.end.p0(i64 24, ptr nonnull %5) #8
  resume { ptr, i32 } %18
}